(lp0
S'poi'
p1
aS'bonus'
p2
aS'exercised_stock_options'
p3
aS'expenses'
p4
aS'fraction_to_poi'
p5
aS'restricted_stock'
p6
aS'salary'
p7
aS'shared_receipt_with_poi'
p8
aS'total_payments'
p9
aS'x6'
p10
aS'x8'
p11
aS'x12'
p12
aS'x34'
p13
aS'x58'
p14
a.